; Function Attrs: mustprogress nounwind uwtable
define void @_ZN3g2o10HyperGraph4EdgeD2Ev(ptr noundef nonnull align 8 captures(none) dereferenceable(36) initializes((0, 8)) %0) unnamed_addr #1 align 2 personality ptr @__gxx_personality_v0 {
  store ptr getelementptr inbounds nuw inrange(-16, 32) (i8, ptr @_ZTVN3g2o10HyperGraph4EdgeE, i64 16), ptr %0, align 8, !tbaa !3
  %2 = getelementptr inbounds nuw i8, ptr %0, i64 8
  %3 = load ptr, ptr %2, align 8, !tbaa !38
  %.not.i.i.i = icmp eq ptr %3, null
  br i1 %.not.i.i.i, label %_ZNSt6vectorIPN3g2o10HyperGraph6VertexESaIS3_EED2Ev.exit, label %4

4:                                                ; preds = %1
  %5 = getelementptr inbounds nuw i8, ptr %0, i64 24
  %6 = load ptr, ptr %5, align 8, !tbaa !39
  %7 = ptrtoint ptr %6 to i64
  %8 = ptrtoint ptr %3 to i64
  %9 = sub i64 %7, %8
  tail call void @_ZdlPvm(ptr noundef nonnull %3, i64 noundef %9) #21
  br label %_ZNSt6vectorIPN3g2o10HyperGraph6VertexESaIS3_EED2Ev.exit

_ZNSt6vectorIPN3g2o10HyperGraph6VertexESaIS3_EED2Ev.exit: ; preds = %1, %4
  ret void
}